target datalayout = "e-m:e-p270:32:32-p271:32:32-p272:64:64-i64:64-i128:128-f80:128-n8:16:32:64-S128"
target triple = "x86_64-pc-linux-gnu"

%struct.PQArgBlock = type { i32, i32, %union.anon }
%union.anon = type { ptr }
%struct.pg_conn = type { ptr, ptr, ptr, ptr, ptr, ptr, ptr, ptr, ptr, ptr, ptr, ptr, ptr, ptr, ptr, ptr, ptr, ptr, ptr, ptr, ptr, ptr, ptr, ptr, ptr, ptr, ptr, ptr, ptr, ptr, ptr, ptr, ptr, ptr, ptr, ptr, ptr, ptr, ptr, ptr, ptr, ptr, ptr, i8, ptr, i32, %struct.PGNoticeHooks, ptr, i32, i32, i32, i32, i32, [6 x i8], i8, i8, i32, i8, i8, i32, i8, i32, ptr, ptr, i32, i32, ptr, ptr, ptr, ptr, ptr, i32, %struct.SockAddr, %struct.SockAddr, i32, i32, i8, i8, i8, i8, i8, i8, ptr, i8, i32, [1 x ptr], i8, i8, ptr, ptr, i32, i32, i32, i8, i8, i32, i32, ptr, i8, i64, ptr, i64, ptr, i32, i32, ptr, i32, i8, i32, i32, i32, i32, ptr, %struct.pg_prng_state, ptr, i32, i32, i32, i32, ptr, i32, i32, i32, i32, ptr, i32, ptr, i8, ptr, ptr, ptr, i32, i8, i8, i8, i8, i8, i8, i8, i8, %struct.PQExpBufferData, i32, %struct.PQExpBufferData }
%struct.PGNoticeHooks = type { ptr, ptr, ptr, ptr }
%struct.SockAddr = type { %struct.sockaddr_storage, i32 }
%struct.sockaddr_storage = type { i16, [118 x i8], i64 }
%struct.pg_prng_state = type { i64, i64 }
%struct.PQExpBufferData = type { ptr, i64, i64 }
%struct.pgLobjfuncs = type { i32, i32, i32, i32, i32, i32, i32, i32, i32, i32, i32, i32, i32 }
%union.anon.0 = type { i64 }
%union.anon.1 = type { i64 }

@.str = private unnamed_addr constant [36 x i8] c"cannot determine OID of function %s\00", align 1
@.str.6 = private unnamed_addr constant [11 x i8] c"lo_lseek64\00", align 1

; Function Attrs: nounwind uwtable
define internal i64 @lo_ntoh64(i64 noundef %0) #0 {
  %2 = alloca i64, align 8
  %3 = alloca %union.anon.1, align 8
  %4 = alloca i64, align 8
  store i64 %0, ptr %2, align 8
  call void @llvm.lifetime.start.p0(i64 8, ptr %3) #10
  call void @llvm.lifetime.start.p0(i64 8, ptr %4) #10
  %5 = load i64, ptr %2, align 8
  store i64 %5, ptr %3, align 8
  %6 = getelementptr inbounds [2 x i32], ptr %3, i64 0, i64 0
  %7 = load i32, ptr %6, align 8
  %8 = call i32 @llvm.bswap.i32(i32 %7)
  %9 = zext i32 %8 to i64
  store i64 %9, ptr %4, align 8
  %10 = load i64, ptr %4, align 8
  %11 = shl i64 %10, 32
  store i64 %11, ptr %4, align 8
  %12 = getelementptr inbounds [2 x i32], ptr %3, i64 0, i64 1
  %13 = load i32, ptr %12, align 4
  %14 = call i32 @llvm.bswap.i32(i32 %13)
  %15 = zext i32 %14 to i64
  %16 = load i64, ptr %4, align 8
  %17 = or i64 %16, %15
  store i64 %17, ptr %4, align 8
  %18 = load i64, ptr %4, align 8
  call void @llvm.lifetime.end.p0(i64 8, ptr %4) #10
  call void @llvm.lifetime.end.p0(i64 8, ptr %3) #10
  ret i64 %18
}

; Function Attrs: nounwind uwtable
define internal i64 @lo_hton64(i64 noundef %0) #0 {
  %2 = alloca i64, align 8
  %3 = alloca %union.anon.0, align 8
  %4 = alloca i32, align 4
  store i64 %0, ptr %2, align 8
  call void @llvm.lifetime.start.p0(i64 8, ptr %3) #10
  call void @llvm.lifetime.start.p0(i64 4, ptr %4) #10
  %5 = load i64, ptr %2, align 8
  %6 = ashr i64 %5, 32
  %7 = trunc i64 %6 to i32
  store i32 %7, ptr %4, align 4
  %8 = load i32, ptr %4, align 4
  %9 = call i32 @llvm.bswap.i32(i32 %8)
  %10 = getelementptr inbounds [2 x i32], ptr %3, i64 0, i64 0
  store i32 %9, ptr %10, align 8
  %11 = load i64, ptr %2, align 8
  %12 = trunc i64 %11 to i32
  store i32 %12, ptr %4, align 4
  %13 = load i32, ptr %4, align 4
  %14 = call i32 @llvm.bswap.i32(i32 %13)
  %15 = getelementptr inbounds [2 x i32], ptr %3, i64 0, i64 1
  store i32 %14, ptr %15, align 4
  %16 = load i64, ptr %3, align 8
  call void @llvm.lifetime.end.p0(i64 4, ptr %4) #10
  call void @llvm.lifetime.end.p0(i64 8, ptr %3) #10
  ret i64 %16
}

; Function Attrs: nounwind uwtable
define i64 @lo_lseek64(ptr noundef %0, i32 noundef %1, i64 noundef %2, i32 noundef %3) #0 {
  %5 = alloca i64, align 8
  %6 = alloca ptr, align 8
  %7 = alloca i32, align 4
  %8 = alloca i64, align 8
  %9 = alloca i32, align 4
  %10 = alloca [3 x %struct.PQArgBlock], align 16
  %11 = alloca ptr, align 8
  %12 = alloca i64, align 8
  %13 = alloca i32, align 4
  %14 = alloca i32, align 4
  store ptr %0, ptr %6, align 8
  store i32 %1, ptr %7, align 4
  store i64 %2, ptr %8, align 8
  store i32 %3, ptr %9, align 4
  call void @llvm.lifetime.start.p0(i64 48, ptr %10) #10
  call void @llvm.lifetime.start.p0(i64 8, ptr %11) #10
  call void @llvm.lifetime.start.p0(i64 8, ptr %12) #10
  call void @llvm.lifetime.start.p0(i64 4, ptr %13) #10
  %15 = load ptr, ptr %6, align 8
  %16 = call i32 @lo_initialize(ptr noundef %15)
  %17 = icmp slt i32 %16, 0
  br i1 %17, label %18, label %19

18:                                               ; preds = %4
  store i64 -1, ptr %5, align 8
  store i32 1, ptr %14, align 4
  br label %71

19:                                               ; preds = %4
  %20 = load ptr, ptr %6, align 8
  %21 = getelementptr inbounds nuw %struct.pg_conn, ptr %20, i32 0, i32 112
  %22 = load ptr, ptr %21, align 8
  %23 = getelementptr inbounds nuw %struct.pgLobjfuncs, ptr %22, i32 0, i32 6
  %24 = load i32, ptr %23, align 4
  %25 = icmp eq i32 %24, 0
  br i1 %25, label %26, label %28

26:                                               ; preds = %19
  %27 = load ptr, ptr %6, align 8
  call void (ptr, ptr, ...) @libpq_append_conn_error(ptr noundef %27, ptr noundef @.str, ptr noundef @.str.6)
  store i64 -1, ptr %5, align 8
  store i32 1, ptr %14, align 4
  br label %71

28:                                               ; preds = %19
  %29 = getelementptr inbounds [3 x %struct.PQArgBlock], ptr %10, i64 0, i64 0
  %30 = getelementptr inbounds nuw %struct.PQArgBlock, ptr %29, i32 0, i32 1
  store i32 1, ptr %30, align 4
  %31 = getelementptr inbounds [3 x %struct.PQArgBlock], ptr %10, i64 0, i64 0
  %32 = getelementptr inbounds nuw %struct.PQArgBlock, ptr %31, i32 0, i32 0
  store i32 4, ptr %32, align 16
  %33 = load i32, ptr %7, align 4
  %34 = getelementptr inbounds [3 x %struct.PQArgBlock], ptr %10, i64 0, i64 0
  %35 = getelementptr inbounds nuw %struct.PQArgBlock, ptr %34, i32 0, i32 2
  store i32 %33, ptr %35, align 8
  %36 = load i64, ptr %8, align 8
  %37 = call i64 @lo_hton64(i64 noundef %36)
  store i64 %37, ptr %8, align 8
  %38 = getelementptr inbounds [3 x %struct.PQArgBlock], ptr %10, i64 0, i64 1
  %39 = getelementptr inbounds nuw %struct.PQArgBlock, ptr %38, i32 0, i32 1
  store i32 0, ptr %39, align 4
  %40 = getelementptr inbounds [3 x %struct.PQArgBlock], ptr %10, i64 0, i64 1
  %41 = getelementptr inbounds nuw %struct.PQArgBlock, ptr %40, i32 0, i32 0
  store i32 8, ptr %41, align 16
  %42 = getelementptr inbounds [3 x %struct.PQArgBlock], ptr %10, i64 0, i64 1
  %43 = getelementptr inbounds nuw %struct.PQArgBlock, ptr %42, i32 0, i32 2
  store ptr %8, ptr %43, align 8
  %44 = getelementptr inbounds [3 x %struct.PQArgBlock], ptr %10, i64 0, i64 2
  %45 = getelementptr inbounds nuw %struct.PQArgBlock, ptr %44, i32 0, i32 1
  store i32 1, ptr %45, align 4
  %46 = getelementptr inbounds [3 x %struct.PQArgBlock], ptr %10, i64 0, i64 2
  %47 = getelementptr inbounds nuw %struct.PQArgBlock, ptr %46, i32 0, i32 0
  store i32 4, ptr %47, align 16
  %48 = load i32, ptr %9, align 4
  %49 = getelementptr inbounds [3 x %struct.PQArgBlock], ptr %10, i64 0, i64 2
  %50 = getelementptr inbounds nuw %struct.PQArgBlock, ptr %49, i32 0, i32 2
  store i32 %48, ptr %50, align 8
  %51 = load ptr, ptr %6, align 8
  %52 = load ptr, ptr %6, align 8
  %53 = getelementptr inbounds nuw %struct.pg_conn, ptr %52, i32 0, i32 112
  %54 = load ptr, ptr %53, align 8
  %55 = getelementptr inbounds nuw %struct.pgLobjfuncs, ptr %54, i32 0, i32 6
  %56 = load i32, ptr %55, align 4
  %57 = getelementptr inbounds [3 x %struct.PQArgBlock], ptr %10, i64 0, i64 0
  %58 = call ptr @PQfn(ptr noundef %51, i32 noundef %56, ptr noundef %12, ptr noundef %13, i32 noundef 0, ptr noundef %57, i32 noundef 3)
  store ptr %58, ptr %11, align 8
  %59 = load ptr, ptr %11, align 8
  %60 = call i32 @PQresultStatus(ptr noundef %59)
  %61 = icmp eq i32 %60, 1
  br i1 %61, label %62, label %69

62:                                               ; preds = %28
  %63 = load i32, ptr %13, align 4
  %64 = icmp eq i32 %63, 8
  br i1 %64, label %65, label %69

65:                                               ; preds = %62
  %66 = load ptr, ptr %11, align 8
  call void @PQclear(ptr noundef %66)
  %67 = load i64, ptr %12, align 8
  %68 = call i64 @lo_ntoh64(i64 noundef %67)
  store i64 %68, ptr %5, align 8
  store i32 1, ptr %14, align 4
  br label %71

69:                                               ; preds = %62, %28
  %70 = load ptr, ptr %11, align 8
  call void @PQclear(ptr noundef %70)
  store i64 -1, ptr %5, align 8
  store i32 1, ptr %14, align 4
  br label %71

71:                                               ; preds = %69, %65, %26, %18
  call void @llvm.lifetime.end.p0(i64 4, ptr %13) #10
  call void @llvm.lifetime.end.p0(i64 8, ptr %12) #10
  call void @llvm.lifetime.end.p0(i64 8, ptr %11) #10
  call void @llvm.lifetime.end.p0(i64 48, ptr %10) #10
  %72 = load i64, ptr %5, align 8
  ret i64 %72
}