; Function Attrs: nounwind uwtable
define noundef i64 @lo_lseek64(ptr noundef %0, i32 noundef %1, i64 noundef %2, i32 noundef %3) local_unnamed_addr #0 {
  %5 = alloca i64, align 8
  %6 = alloca [3 x %struct.PQArgBlock], align 16
  %7 = alloca i64, align 8
  %8 = alloca i32, align 4
  call void @llvm.lifetime.start.p0(i64 48, ptr nonnull %6) #10
  call void @llvm.lifetime.start.p0(i64 8, ptr nonnull %7) #10
  call void @llvm.lifetime.start.p0(i64 4, ptr nonnull %8) #10
  %9 = tail call fastcc i32 @lo_initialize(ptr noundef %0)
  %10 = icmp slt i32 %9, 0
  br i1 %10, label %35, label %11

11:                                               ; preds = %4
  %12 = getelementptr inbounds nuw i8, ptr %0, i64 976
  %13 = load ptr, ptr %12, align 8
  %14 = getelementptr inbounds nuw i8, ptr %13, i64 24
  %15 = load i32, ptr %14, align 4
  %16 = icmp eq i32 %15, 0
  br i1 %16, label %17, label %18

17:                                               ; preds = %11
  tail call void (ptr, ptr, ...) @libpq_append_conn_error(ptr noundef nonnull %0, ptr noundef nonnull @.str, ptr noundef nonnull @.str.6) #10
  br label %35

18:                                               ; preds = %11
  %19 = getelementptr inbounds nuw i8, ptr %6, i64 4
  store i32 1, ptr %19, align 4
  store i32 4, ptr %6, align 16
  %20 = getelementptr inbounds nuw i8, ptr %6, i64 8
  store i32 %1, ptr %20, align 8
  %.sroa.0.0.insert.insert.i = tail call noundef i64 @llvm.bswap.i64(i64 %2)
  store i64 %.sroa.0.0.insert.insert.i, ptr %5, align 8
  %21 = getelementptr inbounds nuw i8, ptr %6, i64 16
  %22 = getelementptr inbounds nuw i8, ptr %6, i64 20
  store i32 0, ptr %22, align 4
  store i32 8, ptr %21, align 16
  %23 = getelementptr inbounds nuw i8, ptr %6, i64 24
  store ptr %5, ptr %23, align 8
  %24 = getelementptr inbounds nuw i8, ptr %6, i64 32
  %25 = getelementptr inbounds nuw i8, ptr %6, i64 36
  store i32 1, ptr %25, align 4
  store i32 4, ptr %24, align 16
  %26 = getelementptr inbounds nuw i8, ptr %6, i64 40
  store i32 %3, ptr %26, align 8
  %27 = call ptr @PQfn(ptr noundef nonnull %0, i32 noundef %15, ptr noundef nonnull %7, ptr noundef nonnull %8, i32 noundef 0, ptr noundef nonnull %6, i32 noundef 3) #10
  %28 = call i32 @PQresultStatus(ptr noundef %27) #10
  %29 = icmp eq i32 %28, 1
  %30 = load i32, ptr %8, align 4
  %31 = icmp eq i32 %30, 8
  %or.cond = select i1 %29, i1 %31, i1 false
  call void @PQclear(ptr noundef %27) #10
  br i1 %or.cond, label %32, label %35

32:                                               ; preds = %18
  %33 = load i64, ptr %7, align 8
  %34 = call noundef i64 @llvm.bswap.i64(i64 %33)
  br label %35

35:                                               ; preds = %18, %4, %32, %17
  %.0 = phi i64 [ -1, %17 ], [ %34, %32 ], [ -1, %4 ], [ -1, %18 ]
  call void @llvm.lifetime.end.p0(i64 4, ptr nonnull %8) #10
  call void @llvm.lifetime.end.p0(i64 8, ptr nonnull %7) #10
  call void @llvm.lifetime.end.p0(i64 48, ptr nonnull %6) #10
  ret i64 %.0
}